; Function Attrs: mustprogress nofree norecurse nosync nounwind willreturn memory(read, inaccessiblemem: none) uwtable
define ptr @lv_theme_default_get() local_unnamed_addr #1 {
  %1 = load ptr, ptr getelementptr inbounds nuw (i8, ptr @lv_global, i64 768), align 8
  %2 = icmp eq ptr %1, null
  br i1 %2, label %lv_theme_default_is_inited.exit.thread, label %lv_theme_default_is_inited.exit

lv_theme_default_is_inited.exit:                  ; preds = %0
  %3 = getelementptr inbounds nuw i8, ptr %1, i64 92
  %4 = load i8, ptr %3, align 4, !tbaa !7, !range !17, !noundef !18
  %5 = trunc nuw i8 %4 to i1
  %spec.select = select i1 %5, ptr %1, ptr null
  br label %lv_theme_default_is_inited.exit.thread

lv_theme_default_is_inited.exit.thread:           ; preds = %lv_theme_default_is_inited.exit, %0
  %6 = phi ptr [ null, %0 ], [ %spec.select, %lv_theme_default_is_inited.exit ]
  ret ptr %6
}